; Function Attrs: nounwind uwtable
define range(i32 -12, 1) i32 @sch_sdp_filename(ptr noundef %0, ptr noundef %1) local_unnamed_addr #0 {
  %3 = getelementptr inbounds nuw i8, ptr %0, i64 240
  tail call void @av_freep(ptr noundef nonnull %3) #9
  %4 = tail call noalias ptr @av_strdup(ptr noundef %1) #9
  store ptr %4, ptr %3, align 8, !tbaa !85
  %.not = icmp eq ptr %4, null
  %5 = select i1 %.not, i32 -12, i32 0
  ret i32 %5
}